target datalayout = "e-m:e-p270:32:32-p271:32:32-p272:64:64-i64:64-i128:128-f80:128-n8:16:32:64-S128"
target triple = "x86_64-pc-linux-gnu"

%struct.yyguts_t = type { ptr, ptr, ptr, i64, i64, ptr, i8, i32, i32, ptr, i32, i32, i32, i32, i32, ptr, i32, ptr, i32, i32, ptr, i32, i32 }
%struct.k12text_state_t = type { ptr, i32, ptr, i32, i32, i32, i32, i32, i32, i32, ptr, i32, i8, i8, i32, ptr, i64, i8 }
%struct.wtap = type { ptr, ptr, i8, i32, i32, ptr, ptr, ptr, i32, ptr, ptr, ptr, ptr, ptr, ptr, ptr, ptr, ptr, ptr, i32, i32, ptr, ptr, ptr, ptr }
%struct.k12text_t = type { i64 }
%struct.wtap_rec = type { i32, i32, i32, %struct.nstime_t, i32, %struct.nstime_t, i8, %union.anon, ptr, i8, %struct.Buffer, %struct.Buffer }
%struct.nstime_t = type { i64, i32 }
%union.anon = type { %struct.wtap_packet_header }
%struct.wtap_packet_header = type { i32, i32, i32, i32, %union.wtap_pseudo_header }
%union.wtap_pseudo_header = type { %struct.erf_mc_phdr }
%struct.erf_mc_phdr = type { %struct.erf_phdr, [16 x %struct.erf_ehdr], %union.anon.1 }
%struct.erf_phdr = type { i64, i8, i8, i16, i16, i16 }
%struct.erf_ehdr = type { i64 }
%union.anon.1 = type { i32 }
%struct.Buffer = type { ptr, i64, i64, i64 }

; Function Attrs: nounwind null_pointer_is_valid sspstrong uwtable
define internal i32 @yy_init_globals(ptr noundef %0) #2 {
  %2 = alloca ptr, align 8
  %3 = alloca ptr, align 8
  store ptr %0, ptr %2, align 8
  call void @llvm.lifetime.start.p0(i64 8, ptr %3) #16
  %4 = load ptr, ptr %2, align 8
  store ptr %4, ptr %3, align 8
  %5 = load ptr, ptr %3, align 8
  %6 = getelementptr inbounds nuw %struct.yyguts_t, ptr %5, i32 0, i32 5
  store ptr null, ptr %6, align 8
  %7 = load ptr, ptr %3, align 8
  %8 = getelementptr inbounds nuw %struct.yyguts_t, ptr %7, i32 0, i32 3
  store i64 0, ptr %8, align 8
  %9 = load ptr, ptr %3, align 8
  %10 = getelementptr inbounds nuw %struct.yyguts_t, ptr %9, i32 0, i32 4
  store i64 0, ptr %10, align 8
  %11 = load ptr, ptr %3, align 8
  %12 = getelementptr inbounds nuw %struct.yyguts_t, ptr %11, i32 0, i32 9
  store ptr null, ptr %12, align 8
  %13 = load ptr, ptr %3, align 8
  %14 = getelementptr inbounds nuw %struct.yyguts_t, ptr %13, i32 0, i32 10
  store i32 0, ptr %14, align 8
  %15 = load ptr, ptr %3, align 8
  %16 = getelementptr inbounds nuw %struct.yyguts_t, ptr %15, i32 0, i32 11
  store i32 0, ptr %16, align 4
  %17 = load ptr, ptr %3, align 8
  %18 = getelementptr inbounds nuw %struct.yyguts_t, ptr %17, i32 0, i32 13
  store i32 0, ptr %18, align 4
  %19 = load ptr, ptr %3, align 8
  %20 = getelementptr inbounds nuw %struct.yyguts_t, ptr %19, i32 0, i32 14
  store i32 0, ptr %20, align 8
  %21 = load ptr, ptr %3, align 8
  %22 = getelementptr inbounds nuw %struct.yyguts_t, ptr %21, i32 0, i32 15
  store ptr null, ptr %22, align 8
  %23 = load ptr, ptr %3, align 8
  %24 = getelementptr inbounds nuw %struct.yyguts_t, ptr %23, i32 0, i32 1
  store ptr null, ptr %24, align 8
  %25 = load ptr, ptr %3, align 8
  %26 = getelementptr inbounds nuw %struct.yyguts_t, ptr %25, i32 0, i32 2
  store ptr null, ptr %26, align 8
  call void @llvm.lifetime.end.p0(i64 8, ptr %3) #16
  ret i32 0
}

; Function Attrs: alwaysinline nounwind
define internal ptr @memset.inline(ptr %0, i32 %1, i64 %2) #9 {
  %4 = alloca ptr, align 8
  %5 = alloca i32, align 4
  %6 = alloca i64, align 8
  store ptr %0, ptr %4, align 8
  store i32 %1, ptr %5, align 4
  store i64 %2, ptr %6, align 8
  %7 = load ptr, ptr %4, align 8
  %8 = load i32, ptr %5, align 4
  %9 = load i64, ptr %6, align 8
  %10 = load ptr, ptr %4, align 8
  %11 = call i64 @llvm.objectsize.i64.p0(ptr %10, i1 false, i1 true, i1 true)
  %12 = call ptr @__memset_chk(ptr noundef %7, i32 noundef %8, i64 noundef %9, i64 noundef %11) #16
  ret ptr %12
}

; Function Attrs: nounwind null_pointer_is_valid sspstrong uwtable
define hidden void @k12text_set_extra(ptr noundef %0, ptr noundef %1) #2 {
  %3 = alloca ptr, align 8
  %4 = alloca ptr, align 8
  %5 = alloca ptr, align 8
  store ptr %0, ptr %3, align 8
  store ptr %1, ptr %4, align 8
  call void @llvm.lifetime.start.p0(i64 8, ptr %5) #16
  %6 = load ptr, ptr %4, align 8
  store ptr %6, ptr %5, align 8
  %7 = load ptr, ptr %3, align 8
  %8 = load ptr, ptr %5, align 8
  %9 = getelementptr inbounds nuw %struct.yyguts_t, ptr %8, i32 0, i32 0
  store ptr %7, ptr %9, align 8
  call void @llvm.lifetime.end.p0(i64 8, ptr %5) #16
  ret void
}

; Function Attrs: null_pointer_is_valid sspstrong uwtable
define hidden i32 @k12text_lex_init(ptr noundef %0) #0 {
  %2 = alloca i32, align 4
  %3 = alloca ptr, align 8
  store ptr %0, ptr %3, align 8
  %4 = load ptr, ptr %3, align 8
  %5 = icmp eq ptr %4, null
  br i1 %5, label %6, label %8

6:                                                ; preds = %1
  %7 = call ptr @__errno_location() #21
  store i32 22, ptr %7, align 4
  store i32 1, ptr %2, align 4
  br label %23

8:                                                ; preds = %1
  %9 = call noalias ptr @malloc(i64 noundef 144) #18
  %10 = load ptr, ptr %3, align 8
  store ptr %9, ptr %10, align 8
  %11 = load ptr, ptr %3, align 8
  %12 = load ptr, ptr %11, align 8
  %13 = icmp eq ptr %12, null
  br i1 %13, label %14, label %16

14:                                               ; preds = %8
  %15 = call ptr @__errno_location() #21
  store i32 12, ptr %15, align 4
  store i32 1, ptr %2, align 4
  br label %23

16:                                               ; preds = %8
  %17 = load ptr, ptr %3, align 8
  %18 = load ptr, ptr %17, align 8
  %19 = call ptr @memset.inline(ptr noundef %18, i32 noundef 0, i64 noundef 144) #16
  %20 = load ptr, ptr %3, align 8
  %21 = load ptr, ptr %20, align 8
  %22 = call i32 @yy_init_globals(ptr noundef %21)
  store i32 %22, ptr %2, align 4
  br label %23

23:                                               ; preds = %16, %14, %6
  %24 = load i32, ptr %2, align 4
  ret i32 %24
}

; Function Attrs: null_pointer_is_valid sspstrong uwtable
define internal zeroext i1 @k12text_run_scanner(ptr noundef %0, ptr noundef %1, i32 noundef %2, ptr noundef %3, ptr noundef %4) #0 {
  %6 = alloca i1, align 1
  %7 = alloca ptr, align 8
  %8 = alloca ptr, align 8
  %9 = alloca i32, align 4
  %10 = alloca ptr, align 8
  %11 = alloca ptr, align 8
  %12 = alloca ptr, align 8
  %13 = alloca i32, align 4
  store ptr %0, ptr %7, align 8
  store ptr %1, ptr %8, align 8
  store i32 %2, ptr %9, align 4
  store ptr %3, ptr %10, align 8
  store ptr %4, ptr %11, align 8
  call void @llvm.lifetime.start.p0(i64 8, ptr %12) #16
  store ptr null, ptr %12, align 8
  %14 = call i32 @k12text_lex_init(ptr noundef %12)
  %15 = icmp ne i32 %14, 0
  br i1 %15, label %16, label %21

16:                                               ; preds = %5
  %17 = call ptr @__errno_location() #21
  %18 = load i32, ptr %17, align 4
  %19 = load ptr, ptr %10, align 8
  store i32 %18, ptr %19, align 4
  %20 = load ptr, ptr %11, align 8
  store ptr null, ptr %20, align 8
  store i1 false, ptr %6, align 1
  store i32 1, ptr %13, align 4
  br label %83

21:                                               ; preds = %5
  %22 = load ptr, ptr %8, align 8
  %23 = load ptr, ptr %7, align 8
  %24 = getelementptr inbounds nuw %struct.k12text_state_t, ptr %23, i32 0, i32 0
  store ptr %22, ptr %24, align 8
  %25 = load ptr, ptr %7, align 8
  %26 = getelementptr inbounds nuw %struct.k12text_state_t, ptr %25, i32 0, i32 1
  store i32 0, ptr %26, align 8
  %27 = load ptr, ptr %7, align 8
  %28 = getelementptr inbounds nuw %struct.k12text_state_t, ptr %27, i32 0, i32 2
  store ptr null, ptr %28, align 8
  %29 = load i32, ptr %9, align 4
  %30 = load ptr, ptr %7, align 8
  %31 = getelementptr inbounds nuw %struct.k12text_state_t, ptr %30, i32 0, i32 3
  store i32 %29, ptr %31, align 8
  %32 = load ptr, ptr %7, align 8
  %33 = getelementptr inbounds nuw %struct.k12text_state_t, ptr %32, i32 0, i32 9
  store i32 0, ptr %33, align 8
  %34 = load ptr, ptr %7, align 8
  %35 = getelementptr inbounds nuw %struct.k12text_state_t, ptr %34, i32 0, i32 17
  store i8 0, ptr %35, align 8
  %36 = load ptr, ptr %7, align 8
  %37 = getelementptr inbounds nuw %struct.k12text_state_t, ptr %36, i32 0, i32 12
  store i8 0, ptr %37, align 4
  %38 = load ptr, ptr %7, align 8
  %39 = getelementptr inbounds nuw %struct.k12text_state_t, ptr %38, i32 0, i32 13
  store i8 0, ptr %39, align 1
  %40 = load ptr, ptr %7, align 8
  %41 = getelementptr inbounds nuw %struct.k12text_state_t, ptr %40, i32 0, i32 14
  store i32 0, ptr %41, align 8
  %42 = load ptr, ptr %7, align 8
  %43 = getelementptr inbounds nuw %struct.k12text_state_t, ptr %42, i32 0, i32 15
  store ptr null, ptr %43, align 8
  %44 = load ptr, ptr %7, align 8
  %45 = getelementptr inbounds nuw %struct.k12text_state_t, ptr %44, i32 0, i32 16
  store i64 0, ptr %45, align 8
  %46 = load ptr, ptr %7, align 8
  %47 = getelementptr inbounds nuw %struct.k12text_state_t, ptr %46, i32 0, i32 4
  store i32 0, ptr %47, align 4
  %48 = load ptr, ptr %7, align 8
  %49 = getelementptr inbounds nuw %struct.k12text_state_t, ptr %48, i32 0, i32 5
  store i32 0, ptr %49, align 8
  %50 = load ptr, ptr %7, align 8
  %51 = getelementptr inbounds nuw %struct.k12text_state_t, ptr %50, i32 0, i32 6
  store i32 0, ptr %51, align 4
  %52 = load ptr, ptr %7, align 8
  %53 = getelementptr inbounds nuw %struct.k12text_state_t, ptr %52, i32 0, i32 8
  store i32 0, ptr %53, align 4
  %54 = load ptr, ptr %7, align 8
  %55 = getelementptr inbounds nuw %struct.k12text_state_t, ptr %54, i32 0, i32 7
  store i32 0, ptr %55, align 8
  %56 = load ptr, ptr %7, align 8
  %57 = getelementptr inbounds nuw %struct.k12text_state_t, ptr %56, i32 0, i32 11
  store i32 0, ptr %57, align 8
  %58 = load ptr, ptr %7, align 8
  %59 = load ptr, ptr %12, align 8
  call void @k12text_set_extra(ptr noundef %58, ptr noundef %59)
  %60 = load ptr, ptr %12, align 8
  %61 = call i32 @k12text_lex(ptr noundef %60)
  %62 = load ptr, ptr %12, align 8
  %63 = call i32 @k12text_lex_destroy(ptr noundef %62)
  %64 = load ptr, ptr %7, align 8
  %65 = getelementptr inbounds nuw %struct.k12text_state_t, ptr %64, i32 0, i32 1
  %66 = load i32, ptr %65, align 8
  %67 = icmp ne i32 %66, 0
  br i1 %67, label %68, label %82

68:                                               ; preds = %21
  %69 = load ptr, ptr %7, align 8
  %70 = getelementptr inbounds nuw %struct.k12text_state_t, ptr %69, i32 0, i32 1
  %71 = load i32, ptr %70, align 8
  %72 = icmp ne i32 %71, -12
  br i1 %72, label %73, label %82

73:                                               ; preds = %68
  %74 = load ptr, ptr %7, align 8
  %75 = getelementptr inbounds nuw %struct.k12text_state_t, ptr %74, i32 0, i32 1
  %76 = load i32, ptr %75, align 8
  %77 = load ptr, ptr %10, align 8
  store i32 %76, ptr %77, align 4
  %78 = load ptr, ptr %7, align 8
  %79 = getelementptr inbounds nuw %struct.k12text_state_t, ptr %78, i32 0, i32 2
  %80 = load ptr, ptr %79, align 8
  %81 = load ptr, ptr %11, align 8
  store ptr %80, ptr %81, align 8
  store i1 false, ptr %6, align 1
  store i32 1, ptr %13, align 4
  br label %83

82:                                               ; preds = %68, %21
  store i1 true, ptr %6, align 1
  store i32 1, ptr %13, align 4
  br label %83

83:                                               ; preds = %82, %73, %16
  call void @llvm.lifetime.end.p0(i64 8, ptr %12) #16
  %84 = load i1, ptr %6, align 1
  ret i1 %84
}

; Function Attrs: null_pointer_is_valid sspstrong uwtable
define internal zeroext i1 @k12text_read(ptr noundef %0, ptr noundef %1, ptr noundef %2, ptr noundef %3, ptr noundef %4) #0 {
  %6 = alloca i1, align 1
  %7 = alloca ptr, align 8
  %8 = alloca ptr, align 8
  %9 = alloca ptr, align 8
  %10 = alloca ptr, align 8
  %11 = alloca ptr, align 8
  %12 = alloca ptr, align 8
  %13 = alloca %struct.k12text_state_t, align 8
  %14 = alloca i32, align 4
  store ptr %0, ptr %7, align 8
  store ptr %1, ptr %8, align 8
  store ptr %2, ptr %9, align 8
  store ptr %3, ptr %10, align 8
  store ptr %4, ptr %11, align 8
  call void @llvm.lifetime.start.p0(i64 8, ptr %12) #16
  %15 = load ptr, ptr %7, align 8
  %16 = getelementptr inbounds nuw %struct.wtap, ptr %15, i32 0, i32 13
  %17 = load ptr, ptr %16, align 8
  store ptr %17, ptr %12, align 8
  call void @llvm.lifetime.start.p0(i64 104, ptr %13) #16
  %18 = load ptr, ptr %7, align 8
  %19 = getelementptr inbounds nuw %struct.wtap, ptr %18, i32 0, i32 0
  %20 = load ptr, ptr %19, align 8
  %21 = load ptr, ptr %12, align 8
  %22 = getelementptr inbounds nuw %struct.k12text_t, ptr %21, i32 0, i32 0
  %23 = load i64, ptr %22, align 8
  %24 = load ptr, ptr %9, align 8
  %25 = call i64 @file_seek(ptr noundef %20, i64 noundef %23, i32 noundef 0, ptr noundef %24)
  %26 = icmp eq i64 %25, -1
  br i1 %26, label %27, label %28

27:                                               ; preds = %5
  store i1 false, ptr %6, align 1
  store i32 1, ptr %14, align 4
  br label %91

28:                                               ; preds = %5
  %29 = call noalias ptr @g_malloc(i64 noundef 262144) #23
  %30 = getelementptr inbounds nuw %struct.k12text_state_t, ptr %13, i32 0, i32 10
  store ptr %29, ptr %30, align 8
  %31 = load ptr, ptr %7, align 8
  %32 = getelementptr inbounds nuw %struct.wtap, ptr %31, i32 0, i32 0
  %33 = load ptr, ptr %32, align 8
  %34 = load ptr, ptr %9, align 8
  %35 = load ptr, ptr %10, align 8
  %36 = call zeroext i1 @k12text_run_scanner(ptr noundef %13, ptr noundef %33, i32 noundef 2, ptr noundef %34, ptr noundef %35)
  br i1 %36, label %40, label %37

37:                                               ; preds = %28
  %38 = getelementptr inbounds nuw %struct.k12text_state_t, ptr %13, i32 0, i32 10
  %39 = load ptr, ptr %38, align 8
  call void @g_free(ptr noundef %39)
  store i1 false, ptr %6, align 1
  store i32 1, ptr %14, align 4
  br label %91

40:                                               ; preds = %28
  %41 = getelementptr inbounds nuw %struct.k12text_state_t, ptr %13, i32 0, i32 17
  %42 = load i8, ptr %41, align 8, !range !16, !noundef !17
  %43 = trunc i8 %42 to i1
  %44 = zext i1 %43 to i32
  %45 = icmp eq i32 %44, 0
  br i1 %45, label %46, label %61

46:                                               ; preds = %40
  %47 = getelementptr inbounds nuw %struct.k12text_state_t, ptr %13, i32 0, i32 13
  %48 = load i8, ptr %47, align 1, !range !16, !noundef !17
  %49 = trunc i8 %48 to i1
  br i1 %49, label %50, label %53

50:                                               ; preds = %46
  %51 = load ptr, ptr %9, align 8
  store i32 0, ptr %51, align 4
  %52 = load ptr, ptr %10, align 8
  store ptr null, ptr %52, align 8
  br label %58

53:                                               ; preds = %46
  %54 = load ptr, ptr %9, align 8
  store i32 -13, ptr %54, align 4
  %55 = getelementptr inbounds nuw %struct.k12text_state_t, ptr %13, i32 0, i32 15
  %56 = load ptr, ptr %55, align 8
  %57 = load ptr, ptr %10, align 8
  store ptr %56, ptr %57, align 8
  br label %58

58:                                               ; preds = %53, %50
  %59 = getelementptr inbounds nuw %struct.k12text_state_t, ptr %13, i32 0, i32 10
  %60 = load ptr, ptr %59, align 8
  call void @g_free(ptr noundef %60)
  store i1 false, ptr %6, align 1
  store i32 1, ptr %14, align 4
  br label %91

61:                                               ; preds = %40
  %62 = load ptr, ptr %12, align 8
  %63 = getelementptr inbounds nuw %struct.k12text_t, ptr %62, i32 0, i32 0
  %64 = load i64, ptr %63, align 8
  %65 = load ptr, ptr %11, align 8
  store i64 %64, ptr %65, align 8
  %66 = getelementptr inbounds nuw %struct.k12text_state_t, ptr %13, i32 0, i32 16
  %67 = load i64, ptr %66, align 8
  %68 = load ptr, ptr %12, align 8
  %69 = getelementptr inbounds nuw %struct.k12text_t, ptr %68, i32 0, i32 0
  %70 = load i64, ptr %69, align 8
  %71 = add i64 %70, %67
  store i64 %71, ptr %69, align 8
  %72 = load ptr, ptr %8, align 8
  %73 = load ptr, ptr %9, align 8
  %74 = load ptr, ptr %10, align 8
  %75 = call zeroext i1 @k12text_set_headers(ptr noundef %72, ptr noundef %13, ptr noundef %73, ptr noundef %74)
  br i1 %75, label %79, label %76

76:                                               ; preds = %61
  %77 = getelementptr inbounds nuw %struct.k12text_state_t, ptr %13, i32 0, i32 10
  %78 = load ptr, ptr %77, align 8
  call void @g_free(ptr noundef %78)
  store i1 false, ptr %6, align 1
  store i32 1, ptr %14, align 4
  br label %91

79:                                               ; preds = %61
  %80 = load ptr, ptr %8, align 8
  %81 = getelementptr inbounds nuw %struct.wtap_rec, ptr %80, i32 0, i32 11
  %82 = getelementptr inbounds nuw %struct.k12text_state_t, ptr %13, i32 0, i32 10
  %83 = load ptr, ptr %82, align 8
  %84 = load ptr, ptr %8, align 8
  %85 = getelementptr inbounds nuw %struct.wtap_rec, ptr %84, i32 0, i32 7
  %86 = getelementptr inbounds nuw %struct.wtap_packet_header, ptr %85, i32 0, i32 0
  %87 = load i32, ptr %86, align 8
  %88 = zext i32 %87 to i64
  call void @ws_buffer_append(ptr noundef %81, ptr noundef %83, i64 noundef %88)
  %89 = getelementptr inbounds nuw %struct.k12text_state_t, ptr %13, i32 0, i32 10
  %90 = load ptr, ptr %89, align 8
  call void @g_free(ptr noundef %90)
  store i1 true, ptr %6, align 1
  store i32 1, ptr %14, align 4
  br label %91

91:                                               ; preds = %79, %76, %58, %37, %27
  call void @llvm.lifetime.end.p0(i64 104, ptr %13) #16
  call void @llvm.lifetime.end.p0(i64 8, ptr %12) #16
  %92 = load i1, ptr %6, align 1
  ret i1 %92
}