; Function Attrs: null_pointer_is_valid sspstrong uwtable
define internal noundef zeroext i1 @k12text_read(ptr noundef readonly captures(none) %0, ptr noundef %1, ptr noundef %2, ptr noundef writeonly captures(none) %3, ptr noundef writeonly captures(none) %4) #0 {
  %6 = alloca %struct.k12text_state_t, align 8
  %7 = getelementptr inbounds nuw i8, ptr %0, i64 96
  %8 = load ptr, ptr %7, align 8
  call void @llvm.lifetime.start.p0(i64 104, ptr nonnull %6) #27
  %9 = load ptr, ptr %0, align 8
  %10 = load i64, ptr %8, align 8
  %11 = tail call i64 @file_seek(ptr noundef %9, i64 noundef %10, i32 noundef 0, ptr noundef %2)
  %12 = icmp eq i64 %11, -1
  br i1 %12, label %61, label %13

13:                                               ; preds = %5
  %14 = tail call noalias dereferenceable_or_null(262144) ptr @g_malloc(i64 noundef 262144) #34
  %15 = getelementptr inbounds nuw i8, ptr %6, i64 56
  store ptr %14, ptr %15, align 8
  %16 = load ptr, ptr %0, align 8
  %calloc.i.i = tail call dereferenceable_or_null(144) ptr @calloc(i64 1, i64 144)
  %17 = icmp eq ptr %calloc.i.i, null
  br i1 %17, label %18, label %20

18:                                               ; preds = %13
  %19 = tail call ptr @__errno_location() #31
  store i32 12, ptr %19, align 4
  store i32 12, ptr %2, align 4
  br label %35

20:                                               ; preds = %13
  store ptr %16, ptr %6, align 8
  %21 = getelementptr inbounds nuw i8, ptr %6, i64 8
  store i32 0, ptr %21, align 8
  %22 = getelementptr inbounds nuw i8, ptr %6, i64 16
  store ptr null, ptr %22, align 8
  %23 = getelementptr inbounds nuw i8, ptr %6, i64 24
  store i32 2, ptr %23, align 8
  %24 = getelementptr inbounds nuw i8, ptr %6, i64 68
  store i8 0, ptr %24, align 4
  %25 = getelementptr inbounds nuw i8, ptr %6, i64 69
  store i8 0, ptr %25, align 1
  %26 = getelementptr inbounds nuw i8, ptr %6, i64 72
  store i32 0, ptr %26, align 8
  %27 = getelementptr inbounds nuw i8, ptr %6, i64 80
  %28 = getelementptr inbounds nuw i8, ptr %6, i64 28
  %29 = getelementptr inbounds nuw i8, ptr %6, i64 64
  store i32 0, ptr %29, align 8
  call void @llvm.memset.p0.i64(ptr noundef nonnull align 4 dereferenceable(24) %28, i8 0, i64 24, i1 false)
  call void @llvm.memset.p0.i64(ptr noundef nonnull align 8 dereferenceable(17) %27, i8 0, i64 17, i1 false)
  store ptr %6, ptr %calloc.i.i, align 8
  %30 = call i32 @k12text_lex(ptr noundef nonnull %calloc.i.i)
  %31 = call i32 @k12text_lex_destroy(ptr noundef nonnull %calloc.i.i)
  %32 = load i32, ptr %21, align 8
  switch i32 %32, label %33 [
    i32 0, label %37
    i32 -12, label %37
  ]

33:                                               ; preds = %20
  store i32 %32, ptr %2, align 4
  %34 = load ptr, ptr %22, align 8
  %.pre = load ptr, ptr %15, align 8
  br label %35

35:                                               ; preds = %33, %18
  %36 = phi ptr [ %.pre, %33 ], [ %14, %18 ]
  %.sink.i = phi ptr [ %34, %33 ], [ null, %18 ]
  store ptr %.sink.i, ptr %3, align 8
  br label %.sink.split

37:                                               ; preds = %20, %20
  %38 = getelementptr inbounds nuw i8, ptr %6, i64 96
  %39 = load i8, ptr %38, align 8, !range !15, !noundef !16
  %40 = icmp eq i8 %39, 0
  br i1 %40, label %41, label %46

41:                                               ; preds = %37
  %42 = load i8, ptr %25, align 1, !range !15, !noundef !16
  %43 = trunc nuw i8 %42 to i1
  %44 = load ptr, ptr %27, align 8
  %spec.select = select i1 %43, i32 0, i32 -13
  %spec.select21 = select i1 %43, ptr null, ptr %44
  store i32 %spec.select, ptr %2, align 4
  store ptr %spec.select21, ptr %3, align 8
  %45 = load ptr, ptr %15, align 8
  br label %.sink.split

46:                                               ; preds = %37
  %47 = load i64, ptr %8, align 8
  store i64 %47, ptr %4, align 8
  %48 = getelementptr inbounds nuw i8, ptr %6, i64 88
  %49 = load i64, ptr %48, align 8
  %50 = add i64 %47, %49
  store i64 %50, ptr %8, align 8
  %51 = call fastcc zeroext i1 @k12text_set_headers(ptr noundef %1, ptr noundef nonnull %6, ptr noundef %2, ptr noundef %3)
  br i1 %51, label %54, label %52

52:                                               ; preds = %46
  %53 = load ptr, ptr %15, align 8
  br label %.sink.split

54:                                               ; preds = %46
  %55 = getelementptr inbounds nuw i8, ptr %1, i64 280
  %56 = load ptr, ptr %15, align 8
  %57 = getelementptr inbounds nuw i8, ptr %1, i64 64
  %58 = load i32, ptr %57, align 8
  %59 = zext i32 %58 to i64
  call void @ws_buffer_append(ptr noundef nonnull %55, ptr noundef %56, i64 noundef %59)
  %60 = load ptr, ptr %15, align 8
  br label %.sink.split

.sink.split:                                      ; preds = %35, %41, %52, %54
  %.sink = phi ptr [ %60, %54 ], [ %53, %52 ], [ %45, %41 ], [ %36, %35 ]
  %.0.ph = phi i1 [ true, %54 ], [ false, %52 ], [ false, %41 ], [ false, %35 ]
  call void @g_free(ptr noundef %.sink)
  br label %61

61:                                               ; preds = %.sink.split, %5
  %.0 = phi i1 [ false, %5 ], [ %.0.ph, %.sink.split ]
  call void @llvm.lifetime.end.p0(i64 104, ptr nonnull %6) #27
  ret i1 %.0
}